target datalayout = "e-m:e-p270:32:32-p271:32:32-p272:64:64-i64:64-i128:128-f80:128-n8:16:32:64-S128"
target triple = "x86_64-pc-linux-gnu"

; Function Attrs: nounwind sspstrong uwtable
define internal i64 @fun_so_iso2022jp_kddi_encoder(ptr noundef %0, ptr noundef %1, i64 noundef %2, ptr noundef %3, i64 noundef %4) #0 {
  %6 = alloca ptr, align 8
  %7 = alloca ptr, align 8
  %8 = alloca i64, align 8
  %9 = alloca ptr, align 8
  %10 = alloca i64, align 8
  %11 = alloca ptr, align 8
  %12 = alloca ptr, align 8
  %13 = alloca i32, align 4
  store ptr %0, ptr %6, align 8, !tbaa !6
  store ptr %1, ptr %7, align 8, !tbaa !10
  store i64 %2, ptr %8, align 8, !tbaa !13
  store ptr %3, ptr %9, align 8, !tbaa !10
  store i64 %4, ptr %10, align 8, !tbaa !13
  call void @llvm.lifetime.start.p0(i64 8, ptr %11) #3
  %14 = load ptr, ptr %6, align 8, !tbaa !6
  store ptr %14, ptr %11, align 8, !tbaa !10
  call void @llvm.lifetime.start.p0(i64 8, ptr %12) #3
  %15 = load ptr, ptr %9, align 8, !tbaa !10
  store ptr %15, ptr %12, align 8, !tbaa !10
  call void @llvm.lifetime.start.p0(i64 4, ptr %13) #3
  %16 = load i64, ptr %8, align 8, !tbaa !13
  %17 = icmp eq i64 %16, 1
  br i1 %17, label %18, label %19

18:                                               ; preds = %5
  store i32 0, ptr %13, align 4, !tbaa !15
  br label %28

19:                                               ; preds = %5
  %20 = load ptr, ptr %7, align 8, !tbaa !10
  %21 = getelementptr inbounds i8, ptr %20, i64 0
  %22 = load i8, ptr %21, align 1, !tbaa !12
  %23 = zext i8 %22 to i32
  %24 = icmp eq i32 %23, 144
  br i1 %24, label %25, label %26

25:                                               ; preds = %19
  store i32 1, ptr %13, align 4, !tbaa !15
  br label %27

26:                                               ; preds = %19
  store i32 2, ptr %13, align 4, !tbaa !15
  br label %27

27:                                               ; preds = %26, %25
  br label %28

28:                                               ; preds = %27, %18
  %29 = load ptr, ptr %11, align 8, !tbaa !10
  %30 = load i8, ptr %29, align 1, !tbaa !12
  %31 = zext i8 %30 to i32
  %32 = load i32, ptr %13, align 4, !tbaa !15
  %33 = icmp ne i32 %31, %32
  br i1 %33, label %34, label %57

34:                                               ; preds = %28
  %35 = load ptr, ptr %9, align 8, !tbaa !10
  %36 = getelementptr inbounds nuw i8, ptr %35, i32 1
  store ptr %36, ptr %9, align 8, !tbaa !10
  store i8 27, ptr %35, align 1, !tbaa !12
  %37 = load i32, ptr %13, align 4, !tbaa !15
  switch i32 %37, label %48 [
    i32 0, label %38
    i32 1, label %43
  ]

38:                                               ; preds = %34
  %39 = load ptr, ptr %9, align 8, !tbaa !10
  %40 = getelementptr inbounds nuw i8, ptr %39, i32 1
  store ptr %40, ptr %9, align 8, !tbaa !10
  store i8 40, ptr %39, align 1, !tbaa !12
  %41 = load ptr, ptr %9, align 8, !tbaa !10
  %42 = getelementptr inbounds nuw i8, ptr %41, i32 1
  store ptr %42, ptr %9, align 8, !tbaa !10
  store i8 66, ptr %41, align 1, !tbaa !12
  br label %53

43:                                               ; preds = %34
  %44 = load ptr, ptr %9, align 8, !tbaa !10
  %45 = getelementptr inbounds nuw i8, ptr %44, i32 1
  store ptr %45, ptr %9, align 8, !tbaa !10
  store i8 36, ptr %44, align 1, !tbaa !12
  %46 = load ptr, ptr %9, align 8, !tbaa !10
  %47 = getelementptr inbounds nuw i8, ptr %46, i32 1
  store ptr %47, ptr %9, align 8, !tbaa !10
  store i8 64, ptr %46, align 1, !tbaa !12
  br label %53

48:                                               ; preds = %34
  %49 = load ptr, ptr %9, align 8, !tbaa !10
  %50 = getelementptr inbounds nuw i8, ptr %49, i32 1
  store ptr %50, ptr %9, align 8, !tbaa !10
  store i8 36, ptr %49, align 1, !tbaa !12
  %51 = load ptr, ptr %9, align 8, !tbaa !10
  %52 = getelementptr inbounds nuw i8, ptr %51, i32 1
  store ptr %52, ptr %9, align 8, !tbaa !10
  store i8 66, ptr %51, align 1, !tbaa !12
  br label %53

53:                                               ; preds = %48, %43, %38
  %54 = load i32, ptr %13, align 4, !tbaa !15
  %55 = trunc i32 %54 to i8
  %56 = load ptr, ptr %11, align 8, !tbaa !10
  store i8 %55, ptr %56, align 1, !tbaa !12
  br label %57

57:                                               ; preds = %53, %28
  %58 = load i64, ptr %8, align 8, !tbaa !13
  %59 = icmp eq i64 %58, 1
  br i1 %59, label %60, label %69

60:                                               ; preds = %57
  %61 = load ptr, ptr %7, align 8, !tbaa !10
  %62 = getelementptr inbounds i8, ptr %61, i64 0
  %63 = load i8, ptr %62, align 1, !tbaa !12
  %64 = zext i8 %63 to i32
  %65 = and i32 %64, 127
  %66 = trunc i32 %65 to i8
  %67 = load ptr, ptr %9, align 8, !tbaa !10
  %68 = getelementptr inbounds nuw i8, ptr %67, i32 1
  store ptr %68, ptr %9, align 8, !tbaa !10
  store i8 %66, ptr %67, align 1, !tbaa !12
  br label %86

69:                                               ; preds = %57
  %70 = load ptr, ptr %7, align 8, !tbaa !10
  %71 = getelementptr inbounds i8, ptr %70, i64 1
  %72 = load i8, ptr %71, align 1, !tbaa !12
  %73 = zext i8 %72 to i32
  %74 = and i32 %73, 127
  %75 = trunc i32 %74 to i8
  %76 = load ptr, ptr %9, align 8, !tbaa !10
  %77 = getelementptr inbounds nuw i8, ptr %76, i32 1
  store ptr %77, ptr %9, align 8, !tbaa !10
  store i8 %75, ptr %76, align 1, !tbaa !12
  %78 = load ptr, ptr %7, align 8, !tbaa !10
  %79 = getelementptr inbounds i8, ptr %78, i64 2
  %80 = load i8, ptr %79, align 1, !tbaa !12
  %81 = zext i8 %80 to i32
  %82 = and i32 %81, 127
  %83 = trunc i32 %82 to i8
  %84 = load ptr, ptr %9, align 8, !tbaa !10
  %85 = getelementptr inbounds nuw i8, ptr %84, i32 1
  store ptr %85, ptr %9, align 8, !tbaa !10
  store i8 %83, ptr %84, align 1, !tbaa !12
  br label %86

86:                                               ; preds = %69, %60
  %87 = load ptr, ptr %9, align 8, !tbaa !10
  %88 = load ptr, ptr %12, align 8, !tbaa !10
  %89 = ptrtoint ptr %87 to i64
  %90 = ptrtoint ptr %88 to i64
  %91 = sub i64 %89, %90
  call void @llvm.lifetime.end.p0(i64 4, ptr %13) #3
  call void @llvm.lifetime.end.p0(i64 8, ptr %12) #3
  call void @llvm.lifetime.end.p0(i64 8, ptr %11) #3
  ret i64 %91
}