; Function Attrs: mustprogress nofree norecurse nosync nounwind sspstrong willreturn memory(argmem: readwrite) uwtable
define internal i64 @fun_so_iso2022jp_kddi_encoder(ptr noundef captures(none) %0, ptr noundef readonly captures(none) %1, i64 noundef %2, ptr noundef %3, i64 %4) #4 {
  %6 = icmp eq i64 %2, 1
  br i1 %6, label %10, label %7

7:                                                ; preds = %5
  %8 = load i8, ptr %1, align 1, !tbaa !6
  %9 = icmp eq i8 %8, -112
  %. = select i1 %9, i32 1, i32 2
  br label %10

10:                                               ; preds = %7, %5
  %.0 = phi i32 [ 0, %5 ], [ %., %7 ]
  %11 = load i8, ptr %0, align 1, !tbaa !6
  %12 = zext i8 %11 to i32
  %.not = icmp eq i32 %.0, %12
  br i1 %.not, label %20, label %13

13:                                               ; preds = %10
  %14 = getelementptr inbounds nuw i8, ptr %3, i64 1
  store i8 27, ptr %3, align 1, !tbaa !6
  %15 = getelementptr inbounds nuw i8, ptr %3, i64 2
  switch i32 %.0, label %17 [
    i32 0, label %18
    i32 1, label %16
  ]

16:                                               ; preds = %13
  br label %18

17:                                               ; preds = %13
  br label %18

18:                                               ; preds = %13, %17, %16
  %.sink25 = phi i8 [ 36, %17 ], [ 36, %16 ], [ 40, %13 ]
  %.sink = phi i8 [ 66, %17 ], [ 64, %16 ], [ 66, %13 ]
  store i8 %.sink25, ptr %14, align 1, !tbaa !6
  store i8 %.sink, ptr %15, align 1, !tbaa !6
  %.1 = getelementptr inbounds nuw i8, ptr %3, i64 3
  %19 = trunc nuw nsw i32 %.0 to i8
  store i8 %19, ptr %0, align 1, !tbaa !6
  br label %20

20:                                               ; preds = %18, %10
  %.024 = phi ptr [ %.1, %18 ], [ %3, %10 ]
  br i1 %6, label %21, label %25

21:                                               ; preds = %20
  %22 = load i8, ptr %1, align 1, !tbaa !6
  %23 = and i8 %22, 127
  %24 = getelementptr inbounds nuw i8, ptr %.024, i64 1
  store i8 %23, ptr %.024, align 1, !tbaa !6
  br label %34

25:                                               ; preds = %20
  %26 = getelementptr inbounds nuw i8, ptr %1, i64 1
  %27 = load i8, ptr %26, align 1, !tbaa !6
  %28 = and i8 %27, 127
  %29 = getelementptr inbounds nuw i8, ptr %.024, i64 1
  store i8 %28, ptr %.024, align 1, !tbaa !6
  %30 = getelementptr inbounds nuw i8, ptr %1, i64 2
  %31 = load i8, ptr %30, align 1, !tbaa !6
  %32 = and i8 %31, 127
  %33 = getelementptr inbounds nuw i8, ptr %.024, i64 2
  store i8 %32, ptr %29, align 1, !tbaa !6
  br label %34

34:                                               ; preds = %25, %21
  %.2 = phi ptr [ %24, %21 ], [ %33, %25 ]
  %35 = ptrtoint ptr %.2 to i64
  %36 = ptrtoint ptr %3 to i64
  %37 = sub i64 %35, %36
  ret i64 %37
}